; Function Attrs: nofree null_pointer_is_valid sspstrong uwtable
define internal void @seg3a_latitude_fmt(ptr noundef %0, i32 noundef %1) #1 {
  %3 = icmp slt i32 %1, 0
  %.07 = tail call i32 @llvm.abs.i32(i32 %1, i1 false)
  %.0 = select i1 %3, i32 83, i32 78
  %4 = sitofp i32 %.07 to float
  %5 = fdiv float %4, 1.000000e+01
  %6 = fpext float %5 to double
  %7 = tail call i32 (ptr, i64, i32, i64, ptr, ...) @__snprintf_chk(ptr noundef %0, i64 noundef 240, i32 noundef 2, i64 noundef -1, ptr noundef nonnull @.str.225, double noundef %6, i32 noundef %.0, i32 noundef %.07)
  ret void
}